; Function Attrs: mustprogress uwtable
define dso_local void @_ZNK4pbrt12LightBVHNode8ToStringB5cxx11Ev(ptr dead_on_unwind noalias writable sret(%"class.std::__cxx11::basic_string") align 8 %0, ptr noundef nonnull align 32 dereferenceable(28) %1) local_unnamed_addr #2 align 2 personality ptr @__gxx_personality_v0 {
  %3 = alloca i32, align 4
  %4 = alloca i32, align 4
  call void @llvm.lifetime.start.p0(i64 4, ptr nonnull %3) #25
  %5 = getelementptr inbounds nuw i8, ptr %1, i64 24
  %6 = load i32, ptr %5, align 8
  %7 = and i32 %6, 2147483647
  store i32 %7, ptr %3, align 4, !tbaa !25
  call void @llvm.lifetime.start.p0(i64 4, ptr nonnull %4) #25
  %8 = lshr i32 %6, 31
  store i32 %8, ptr %4, align 4, !tbaa !25
  %9 = getelementptr inbounds nuw i8, ptr %0, i64 16
  store ptr %9, ptr %0, align 8, !tbaa !15, !alias.scope !256
  %10 = getelementptr inbounds nuw i8, ptr %0, i64 8
  store i64 0, ptr %10, align 8, !tbaa !19, !alias.scope !256
  store i8 0, ptr %9, align 8, !tbaa !20, !alias.scope !256
  invoke void @_ZN4pbrt6detail21stringPrintfRecursiveIRKNS_18CompactLightBoundsEJRKjS6_EEEvPNSt7__cxx1112basic_stringIcSt11char_traitsIcESaIcEEEPKcOT_DpOT0_(ptr noundef nonnull align 8 %0, ptr noundef nonnull @.str.20, ptr noundef nonnull align 4 dereferenceable(24) %1, ptr noundef nonnull align 4 dereferenceable(4) %3, ptr noundef nonnull align 4 dereferenceable(4) %4)
          to label %_ZN4pbrt12StringPrintfIJRKNS_18CompactLightBoundsERKjS5_EEENSt7__cxx1112basic_stringIcSt11char_traitsIcESaIcEEEPKcDpOT_.exit unwind label %11

11:                                               ; preds = %2
  %12 = landingpad { ptr, i32 }
          cleanup
  %13 = load ptr, ptr %0, align 8, !tbaa !9, !alias.scope !256
  %14 = icmp eq ptr %13, %9
  br i1 %14, label %_ZNKSt7__cxx1112basic_stringIcSt11char_traitsIcESaIcEE11_M_is_localEv.exit.thread.i.i.i, label %_ZNKSt7__cxx1112basic_stringIcSt11char_traitsIcESaIcEE11_M_is_localEv.exit.i.i.i

_ZNKSt7__cxx1112basic_stringIcSt11char_traitsIcESaIcEE11_M_is_localEv.exit.thread.i.i.i: ; preds = %11
  %15 = load i64, ptr %10, align 8, !tbaa !19, !alias.scope !256
  %16 = icmp ult i64 %15, 16
  call void @llvm.assume(i1 %16)
  br label %_ZNSt7__cxx1112basic_stringIcSt11char_traitsIcESaIcEED2Ev.exit.i

_ZNKSt7__cxx1112basic_stringIcSt11char_traitsIcESaIcEE11_M_is_localEv.exit.i.i.i: ; preds = %11
  %17 = load i64, ptr %9, align 8, !tbaa !20, !alias.scope !256
  %18 = add i64 %17, 1
  call void @_ZdlPvm(ptr noundef %13, i64 noundef %18) #26
  br label %_ZNSt7__cxx1112basic_stringIcSt11char_traitsIcESaIcEED2Ev.exit.i

_ZNSt7__cxx1112basic_stringIcSt11char_traitsIcESaIcEED2Ev.exit.i: ; preds = %_ZNKSt7__cxx1112basic_stringIcSt11char_traitsIcESaIcEE11_M_is_localEv.exit.i.i.i, %_ZNKSt7__cxx1112basic_stringIcSt11char_traitsIcESaIcEE11_M_is_localEv.exit.thread.i.i.i
  resume { ptr, i32 } %12

_ZN4pbrt12StringPrintfIJRKNS_18CompactLightBoundsERKjS5_EEENSt7__cxx1112basic_stringIcSt11char_traitsIcESaIcEEEPKcDpOT_.exit: ; preds = %2
  call void @llvm.lifetime.end.p0(i64 4, ptr nonnull %4) #25
  call void @llvm.lifetime.end.p0(i64 4, ptr nonnull %3) #25
  ret void
}